target datalayout = "e-m:e-p270:32:32-p271:32:32-p272:64:64-i64:64-i128:128-f80:128-n8:16:32:64-S128"
target triple = "x86_64-pc-linux-gnu"

%struct.H5E_stack_t = type { i64, [32 x %struct.H5E_entry_t], %struct.H5E_auto_op_t, ptr, i32 }
%struct.H5E_entry_t = type { i8, %struct.H5E_error2_t }
%struct.H5E_error2_t = type { i64, i64, i64, i32, ptr, ptr, ptr }
%struct.H5E_auto_op_t = type { i32, i8, ptr, ptr, ptr, ptr }
%struct.H5E_cls_t = type { i8, ptr, ptr, ptr }
%struct.H5E_print_t = type { ptr, %struct.H5E_cls_t }
%struct.H5E_walk_op_t = type { i32, %union.anon.0 }
%union.anon.0 = type { ptr }

@H5E_ARGS_g = global i64 -1, align 8
@H5E_ERROR_g = global i64 -1, align 8
@H5E_BADTYPE_g = global i64 -1, align 8
@H5E_CANTLIST_g = global i64 -1, align 8
@H5E_CANTGET_g = global i64 -1, align 8
@H5E_init_g = external global i8, align 1
@H5_libterm_g = external global i8, align 1
@.str.1 = private unnamed_addr constant [100 x i8] c"generated/home/dtcxzyw/WorkSpace/Projects/compilers/llvm-opt-benchmark/bench/hdf5/hdf5/src/H5Eint.c\00", align 1
@H5E_stack_g = global [1 x %struct.H5E_stack_t] zeroinitializer, align 16
@.str.7 = private unnamed_addr constant [30 x i8] c"can't get current error stack\00", align 1
@__func__.H5E__print2 = private unnamed_addr constant [12 x i8] c"H5E__print2\00", align 1
@.str.11 = private unnamed_addr constant [21 x i8] c"not a error stack ID\00", align 1
@.str.12 = private unnamed_addr constant [26 x i8] c"can't display error stack\00", align 1
@stderr = external global ptr, align 8
@__func__.H5E__print = private unnamed_addr constant [11 x i8] c"H5E__print\00", align 1
@.str.13 = private unnamed_addr constant [23 x i8] c"can't walk error stack\00", align 1

; Function Attrs: nounwind uwtable
define i32 @H5E__print(ptr noundef %0, ptr noundef %1, i1 noundef zeroext %2) #0 {
  %4 = alloca ptr, align 8
  %5 = alloca ptr, align 8
  %6 = alloca i8, align 1
  %7 = alloca %struct.H5E_print_t, align 8
  %8 = alloca %struct.H5E_walk_op_t, align 8
  %9 = alloca i32, align 4
  %10 = alloca i8, align 1
  store ptr %0, ptr %4, align 8, !tbaa !16
  store ptr %1, ptr %5, align 8, !tbaa !63
  %11 = zext i1 %2 to i8
  store i8 %11, ptr %6, align 1, !tbaa !7
  call void @llvm.lifetime.start.p0(i64 40, ptr %7) #9
  call void @llvm.lifetime.start.p0(i64 16, ptr %8) #9
  call void @llvm.lifetime.start.p0(i64 4, ptr %9) #9
  store i32 0, ptr %9, align 4, !tbaa !3
  call void @llvm.lifetime.start.p0(i64 1, ptr %10) #9
  store i8 0, ptr %10, align 1, !tbaa !7
  %12 = load i8, ptr @H5E_init_g, align 1, !tbaa !7, !range !9, !noundef !10
  %13 = trunc i8 %12 to i1
  br i1 %13, label %18, label %14

14:                                               ; preds = %3
  %15 = load i8, ptr @H5_libterm_g, align 1, !tbaa !7, !range !9, !noundef !10
  %16 = trunc i8 %15 to i1
  %17 = xor i1 %16, true
  br label %18

18:                                               ; preds = %14, %3
  %19 = phi i1 [ true, %3 ], [ %17, %14 ]
  %20 = xor i1 %19, true
  %21 = xor i1 %20, true
  %22 = zext i1 %21 to i32
  %23 = sext i32 %22 to i64
  %24 = call i64 @llvm.expect.i64(i64 %23, i64 1)
  %25 = icmp ne i64 %24, 0
  br i1 %25, label %26, label %93

26:                                               ; preds = %18
  %27 = load ptr, ptr %5, align 8, !tbaa !63
  %28 = icmp ne ptr %27, null
  br i1 %28, label %32, label %29

29:                                               ; preds = %26
  %30 = load ptr, ptr @stderr, align 8, !tbaa !63
  %31 = getelementptr inbounds nuw %struct.H5E_print_t, ptr %7, i32 0, i32 0
  store ptr %30, ptr %31, align 8, !tbaa !65
  br label %35

32:                                               ; preds = %26
  %33 = load ptr, ptr %5, align 8, !tbaa !63
  %34 = getelementptr inbounds nuw %struct.H5E_print_t, ptr %7, i32 0, i32 0
  store ptr %33, ptr %34, align 8, !tbaa !65
  br label %35

35:                                               ; preds = %32, %29
  %36 = getelementptr inbounds nuw %struct.H5E_print_t, ptr %7, i32 0, i32 1
  call void @llvm.memset.p0.i64(ptr align 8 %36, i8 0, i64 32, i1 false)
  %37 = load i8, ptr %6, align 1, !tbaa !7, !range !9, !noundef !10
  %38 = trunc i8 %37 to i1
  br i1 %38, label %39, label %65

39:                                               ; preds = %35
  %40 = getelementptr inbounds nuw %struct.H5E_walk_op_t, ptr %8, i32 0, i32 0
  store i32 1, ptr %40, align 8, !tbaa !67
  %41 = getelementptr inbounds nuw %struct.H5E_walk_op_t, ptr %8, i32 0, i32 1
  store ptr @H5E__walk1_cb, ptr %41, align 8, !tbaa !28
  %42 = load ptr, ptr %4, align 8, !tbaa !16
  %43 = call i32 @H5E__walk(ptr noundef %42, i32 noundef 1, ptr noundef %8, ptr noundef %7)
  %44 = icmp slt i32 %43, 0
  br i1 %44, label %45, label %64

45:                                               ; preds = %39
  br label %46

46:                                               ; preds = %45
  br label %47

47:                                               ; preds = %46
  br label %48

48:                                               ; preds = %47
  %49 = load i64, ptr @H5E_ERROR_g, align 8, !tbaa !11
  %50 = load i64, ptr @H5E_CANTLIST_g, align 8, !tbaa !11
  %51 = call i32 (ptr, ptr, i32, i64, i64, ptr, ...) @H5E_printf_stack(ptr noundef @.str.1, ptr noundef @__func__.H5E__print, i32 noundef 1288, i64 noundef %49, i64 noundef %50, ptr noundef @.str.13)
  br label %52

52:                                               ; preds = %48
  br label %53

53:                                               ; preds = %52
  store i8 1, ptr %10, align 1, !tbaa !7
  %54 = load i8, ptr %10, align 1, !tbaa !7, !range !9, !noundef !10
  %55 = trunc i8 %54 to i1
  %56 = zext i1 %55 to i8
  store i8 %56, ptr %10, align 1, !tbaa !7
  br label %57

57:                                               ; preds = %53
  br label %58

58:                                               ; preds = %57
  br label %59

59:                                               ; preds = %58
  store i32 -1, ptr %9, align 4, !tbaa !3
  br label %92

60:                                               ; No predecessors!
  br label %61

61:                                               ; preds = %60
  br label %62

62:                                               ; preds = %61
  br label %63

63:                                               ; preds = %62
  br label %64

64:                                               ; preds = %63, %39
  br label %91

65:                                               ; preds = %35
  %66 = getelementptr inbounds nuw %struct.H5E_walk_op_t, ptr %8, i32 0, i32 0
  store i32 2, ptr %66, align 8, !tbaa !67
  %67 = getelementptr inbounds nuw %struct.H5E_walk_op_t, ptr %8, i32 0, i32 1
  store ptr @H5E__walk2_cb, ptr %67, align 8, !tbaa !28
  %68 = load ptr, ptr %4, align 8, !tbaa !16
  %69 = call i32 @H5E__walk(ptr noundef %68, i32 noundef 1, ptr noundef %8, ptr noundef %7)
  %70 = icmp slt i32 %69, 0
  br i1 %70, label %71, label %90

71:                                               ; preds = %65
  br label %72

72:                                               ; preds = %71
  br label %73

73:                                               ; preds = %72
  br label %74

74:                                               ; preds = %73
  %75 = load i64, ptr @H5E_ERROR_g, align 8, !tbaa !11
  %76 = load i64, ptr @H5E_CANTLIST_g, align 8, !tbaa !11
  %77 = call i32 (ptr, ptr, i32, i64, i64, ptr, ...) @H5E_printf_stack(ptr noundef @.str.1, ptr noundef @__func__.H5E__print, i32 noundef 1297, i64 noundef %75, i64 noundef %76, ptr noundef @.str.13)
  br label %78

78:                                               ; preds = %74
  br label %79

79:                                               ; preds = %78
  store i8 1, ptr %10, align 1, !tbaa !7
  %80 = load i8, ptr %10, align 1, !tbaa !7, !range !9, !noundef !10
  %81 = trunc i8 %80 to i1
  %82 = zext i1 %81 to i8
  store i8 %82, ptr %10, align 1, !tbaa !7
  br label %83

83:                                               ; preds = %79
  br label %84

84:                                               ; preds = %83
  br label %85

85:                                               ; preds = %84
  store i32 -1, ptr %9, align 4, !tbaa !3
  br label %92

86:                                               ; No predecessors!
  br label %87

87:                                               ; preds = %86
  br label %88

88:                                               ; preds = %87
  br label %89

89:                                               ; preds = %88
  br label %90

90:                                               ; preds = %89, %65
  br label %91

91:                                               ; preds = %90, %64
  br label %92

92:                                               ; preds = %91, %85, %59
  br label %93

93:                                               ; preds = %92, %18
  %94 = load i32, ptr %9, align 4, !tbaa !3
  call void @llvm.lifetime.end.p0(i64 1, ptr %10) #9
  call void @llvm.lifetime.end.p0(i64 4, ptr %9) #9
  call void @llvm.lifetime.end.p0(i64 16, ptr %8) #9
  call void @llvm.lifetime.end.p0(i64 40, ptr %7) #9
  ret i32 %94
}

; Function Attrs: nounwind uwtable
define i32 @H5E__print2(i64 noundef %0, ptr noundef %1) #0 {
  %3 = alloca i64, align 8
  %4 = alloca ptr, align 8
  %5 = alloca ptr, align 8
  %6 = alloca i32, align 4
  %7 = alloca i8, align 1
  store i64 %0, ptr %3, align 8, !tbaa !11
  store ptr %1, ptr %4, align 8, !tbaa !63
  call void @llvm.lifetime.start.p0(i64 8, ptr %5) #9
  call void @llvm.lifetime.start.p0(i64 4, ptr %6) #9
  store i32 0, ptr %6, align 4, !tbaa !3
  call void @llvm.lifetime.start.p0(i64 1, ptr %7) #9
  store i8 0, ptr %7, align 1, !tbaa !7
  %8 = load i8, ptr @H5E_init_g, align 1, !tbaa !7, !range !9, !noundef !10
  %9 = trunc i8 %8 to i1
  br i1 %9, label %14, label %10

10:                                               ; preds = %2
  %11 = load i8, ptr @H5_libterm_g, align 1, !tbaa !7, !range !9, !noundef !10
  %12 = trunc i8 %11 to i1
  %13 = xor i1 %12, true
  br label %14

14:                                               ; preds = %10, %2
  %15 = phi i1 [ true, %2 ], [ %13, %10 ]
  %16 = xor i1 %15, true
  %17 = xor i1 %16, true
  %18 = zext i1 %17 to i32
  %19 = sext i32 %18 to i64
  %20 = call i64 @llvm.expect.i64(i64 %19, i64 1)
  %21 = icmp ne i64 %20, 0
  br i1 %21, label %22, label %97

22:                                               ; preds = %14
  %23 = load i64, ptr %3, align 8, !tbaa !11
  %24 = icmp eq i64 %23, 0
  br i1 %24, label %25, label %46

25:                                               ; preds = %22
  store ptr @H5E_stack_g, ptr %5, align 8, !tbaa !16
  br i1 false, label %26, label %45

26:                                               ; preds = %25
  br label %27

27:                                               ; preds = %26
  br label %28

28:                                               ; preds = %27
  br label %29

29:                                               ; preds = %28
  %30 = load i64, ptr @H5E_ERROR_g, align 8, !tbaa !11
  %31 = load i64, ptr @H5E_CANTGET_g, align 8, !tbaa !11
  %32 = call i32 (ptr, ptr, i32, i64, i64, ptr, ...) @H5E_printf_stack(ptr noundef @.str.1, ptr noundef @__func__.H5E__print2, i32 noundef 863, i64 noundef %30, i64 noundef %31, ptr noundef @.str.7)
  br label %33

33:                                               ; preds = %29
  br label %34

34:                                               ; preds = %33
  store i8 1, ptr %7, align 1, !tbaa !7
  %35 = load i8, ptr %7, align 1, !tbaa !7, !range !9, !noundef !10
  %36 = trunc i8 %35 to i1
  %37 = zext i1 %36 to i8
  store i8 %37, ptr %7, align 1, !tbaa !7
  br label %38

38:                                               ; preds = %34
  br label %39

39:                                               ; preds = %38
  br label %40

40:                                               ; preds = %39
  store i32 -1, ptr %6, align 4, !tbaa !3
  br label %96

41:                                               ; No predecessors!
  br label %42

42:                                               ; preds = %41
  br label %43

43:                                               ; preds = %42
  br label %44

44:                                               ; preds = %43
  br label %45

45:                                               ; preds = %44, %25
  br label %71

46:                                               ; preds = %22
  %47 = call i32 @H5E_clear_stack()
  %48 = load i64, ptr %3, align 8, !tbaa !11
  %49 = call ptr @H5I_object_verify(i64 noundef %48, i32 noundef 14)
  store ptr %49, ptr %5, align 8, !tbaa !16
  %50 = icmp eq ptr null, %49
  br i1 %50, label %51, label %70

51:                                               ; preds = %46
  br label %52

52:                                               ; preds = %51
  br label %53

53:                                               ; preds = %52
  br label %54

54:                                               ; preds = %53
  %55 = load i64, ptr @H5E_ARGS_g, align 8, !tbaa !11
  %56 = load i64, ptr @H5E_BADTYPE_g, align 8, !tbaa !11
  %57 = call i32 (ptr, ptr, i32, i64, i64, ptr, ...) @H5E_printf_stack(ptr noundef @.str.1, ptr noundef @__func__.H5E__print2, i32 noundef 870, i64 noundef %55, i64 noundef %56, ptr noundef @.str.11)
  br label %58

58:                                               ; preds = %54
  br label %59

59:                                               ; preds = %58
  store i8 1, ptr %7, align 1, !tbaa !7
  %60 = load i8, ptr %7, align 1, !tbaa !7, !range !9, !noundef !10
  %61 = trunc i8 %60 to i1
  %62 = zext i1 %61 to i8
  store i8 %62, ptr %7, align 1, !tbaa !7
  br label %63

63:                                               ; preds = %59
  br label %64

64:                                               ; preds = %63
  br label %65

65:                                               ; preds = %64
  store i32 -1, ptr %6, align 4, !tbaa !3
  br label %96

66:                                               ; No predecessors!
  br label %67

67:                                               ; preds = %66
  br label %68

68:                                               ; preds = %67
  br label %69

69:                                               ; preds = %68
  br label %70

70:                                               ; preds = %69, %46
  br label %71

71:                                               ; preds = %70, %45
  %72 = load ptr, ptr %5, align 8, !tbaa !16
  %73 = load ptr, ptr %4, align 8, !tbaa !63
  %74 = call i32 @H5E__print(ptr noundef %72, ptr noundef %73, i1 noundef zeroext false)
  %75 = icmp slt i32 %74, 0
  br i1 %75, label %76, label %95

76:                                               ; preds = %71
  br label %77

77:                                               ; preds = %76
  br label %78

78:                                               ; preds = %77
  br label %79

79:                                               ; preds = %78
  %80 = load i64, ptr @H5E_ERROR_g, align 8, !tbaa !11
  %81 = load i64, ptr @H5E_CANTLIST_g, align 8, !tbaa !11
  %82 = call i32 (ptr, ptr, i32, i64, i64, ptr, ...) @H5E_printf_stack(ptr noundef @.str.1, ptr noundef @__func__.H5E__print2, i32 noundef 875, i64 noundef %80, i64 noundef %81, ptr noundef @.str.12)
  br label %83

83:                                               ; preds = %79
  br label %84

84:                                               ; preds = %83
  store i8 1, ptr %7, align 1, !tbaa !7
  %85 = load i8, ptr %7, align 1, !tbaa !7, !range !9, !noundef !10
  %86 = trunc i8 %85 to i1
  %87 = zext i1 %86 to i8
  store i8 %87, ptr %7, align 1, !tbaa !7
  br label %88

88:                                               ; preds = %84
  br label %89

89:                                               ; preds = %88
  br label %90

90:                                               ; preds = %89
  store i32 -1, ptr %6, align 4, !tbaa !3
  br label %96

91:                                               ; No predecessors!
  br label %92

92:                                               ; preds = %91
  br label %93

93:                                               ; preds = %92
  br label %94

94:                                               ; preds = %93
  br label %95

95:                                               ; preds = %94, %71
  br label %96

96:                                               ; preds = %95, %90, %65, %40
  br label %97

97:                                               ; preds = %96, %14
  %98 = load i32, ptr %6, align 4, !tbaa !3
  call void @llvm.lifetime.end.p0(i64 1, ptr %7) #9
  call void @llvm.lifetime.end.p0(i64 4, ptr %6) #9
  call void @llvm.lifetime.end.p0(i64 8, ptr %5) #9
  ret i32 %98
}