; Function Attrs: nounwind uwtable
define range(i32 -1, 1) i32 @H5E__print2(i64 noundef %0, ptr noundef %1) #0 {
  %3 = alloca %struct.H5E_print_t, align 8
  %4 = alloca %struct.H5E_walk_op_t, align 8
  %5 = load i8, ptr @H5E_init_g, align 1, !tbaa !3, !range !7, !noundef !8
  %6 = trunc nuw i8 %5 to i1
  %7 = load i8, ptr @H5_libterm_g, align 1, !range !7
  %8 = trunc nuw i8 %7 to i1
  %9 = xor i1 %8, true
  %10 = select i1 %6, i1 true, i1 %9
  br i1 %10, label %11, label %36, !prof !9

11:                                               ; preds = %2
  %12 = icmp eq i64 %0, 0
  br i1 %12, label %21, label %13

13:                                               ; preds = %11
  %14 = tail call i32 @H5E_clear_stack()
  %15 = tail call ptr @H5I_object_verify(i64 noundef %0, i32 noundef 14) #16
  %16 = icmp eq ptr %15, null
  br i1 %16, label %17, label %._crit_edge

._crit_edge:                                      ; preds = %13
  %.pre = load i8, ptr @H5E_init_g, align 1, !tbaa !3, !range !7
  %.pre10 = load i8, ptr @H5_libterm_g, align 1, !range !7
  %.pre11 = trunc nuw i8 %.pre to i1
  %.pre12 = trunc nuw i8 %.pre10 to i1
  %.pre14 = xor i1 %.pre12, true
  br label %21

17:                                               ; preds = %13
  %18 = load i64, ptr @H5E_ARGS_g, align 8, !tbaa !10
  %19 = load i64, ptr @H5E_BADTYPE_g, align 8, !tbaa !10
  %20 = tail call i32 (ptr, ptr, i32, i64, i64, ptr, ...) @H5E_printf_stack(ptr noundef nonnull @.str.1, ptr noundef nonnull @__func__.H5E__print2, i32 noundef 870, i64 noundef %18, i64 noundef %19, ptr noundef nonnull @.str.11)
  br label %36

21:                                               ; preds = %._crit_edge, %11
  %.pre-phi15 = phi i1 [ %.pre14, %._crit_edge ], [ %9, %11 ]
  %.pre-phi = phi i1 [ %.pre11, %._crit_edge ], [ %6, %11 ]
  %.06 = phi ptr [ %15, %._crit_edge ], [ @H5E_stack_g, %11 ]
  call void @llvm.lifetime.start.p0(i64 40, ptr nonnull %3) #16
  call void @llvm.lifetime.start.p0(i64 16, ptr nonnull %4) #16
  %22 = select i1 %.pre-phi, i1 true, i1 %.pre-phi15
  br i1 %22, label %23, label %H5E__print.exit.thread, !prof !9

23:                                               ; preds = %21
  %.not.i = icmp eq ptr %1, null
  %24 = load ptr, ptr @stderr, align 8
  %storemerge.i = select i1 %.not.i, ptr %24, ptr %1
  store ptr %storemerge.i, ptr %3, align 8, !tbaa !63
  %25 = getelementptr inbounds nuw i8, ptr %3, i64 8
  call void @llvm.memset.p0.i64(ptr noundef nonnull align 8 dereferenceable(32) %25, i8 0, i64 32, i1 false)
  %26 = getelementptr inbounds nuw i8, ptr %4, i64 8
  store i32 2, ptr %4, align 8, !tbaa !66
  store ptr @H5E__walk2_cb, ptr %26, align 8, !tbaa !33
  %27 = call i32 @H5E__walk(ptr noundef nonnull %.06, i32 noundef 1, ptr noundef nonnull %4, ptr noundef nonnull %3)
  %28 = icmp slt i32 %27, 0
  br i1 %28, label %29, label %H5E__print.exit.thread

H5E__print.exit.thread:                           ; preds = %23, %21
  call void @llvm.lifetime.end.p0(i64 16, ptr nonnull %4) #16
  call void @llvm.lifetime.end.p0(i64 40, ptr nonnull %3) #16
  br label %36

29:                                               ; preds = %23
  %30 = load i64, ptr @H5E_ERROR_g, align 8, !tbaa !10
  %31 = load i64, ptr @H5E_CANTLIST_g, align 8, !tbaa !10
  %32 = call i32 (ptr, ptr, i32, i64, i64, ptr, ...) @H5E_printf_stack(ptr noundef nonnull @.str.1, ptr noundef nonnull @__func__.H5E__print, i32 noundef 1297, i64 noundef %30, i64 noundef %31, ptr noundef nonnull @.str.13)
  call void @llvm.lifetime.end.p0(i64 16, ptr nonnull %4) #16
  call void @llvm.lifetime.end.p0(i64 40, ptr nonnull %3) #16
  %33 = load i64, ptr @H5E_ERROR_g, align 8, !tbaa !10
  %34 = load i64, ptr @H5E_CANTLIST_g, align 8, !tbaa !10
  %35 = call i32 (ptr, ptr, i32, i64, i64, ptr, ...) @H5E_printf_stack(ptr noundef nonnull @.str.1, ptr noundef nonnull @__func__.H5E__print2, i32 noundef 875, i64 noundef %33, i64 noundef %34, ptr noundef nonnull @.str.12)
  br label %36

36:                                               ; preds = %H5E__print.exit.thread, %17, %29, %2
  %.0 = phi i32 [ -1, %29 ], [ -1, %17 ], [ 0, %2 ], [ 0, %H5E__print.exit.thread ]
  ret i32 %.0
}